; Function Attrs: mustprogress uwtable
define hidden void @_Z5applyR3refI15model_converterERS_I5modelE(ptr nocapture noundef nonnull readonly align 8 dereferenceable(8) %mc, ptr noundef nonnull align 8 dereferenceable(8) %m) local_unnamed_addr #3 {
entry:
  %0 = load ptr, ptr %mc, align 8
  %cmp.i.not = icmp eq ptr %0, null
  br i1 %cmp.i.not, label %if.end, label %if.then

if.then:                                          ; preds = %entry
  %vtable = load ptr, ptr %0, align 8
  %vfn = getelementptr inbounds i8, ptr %vtable, i64 32
  %1 = load ptr, ptr %vfn, align 8
  tail call void %1(ptr noundef nonnull align 8 dereferenceable(25) %0, ptr noundef nonnull align 8 dereferenceable(8) %m)
  br label %if.end

if.end:                                           ; preds = %if.then, %entry
  ret void
}